target datalayout = "e-m:e-p270:32:32-p271:32:32-p272:64:64-i64:64-i128:128-f80:128-n8:16:32:64-S128"
target triple = "x86_64-pc-linux-gnu"

%struct._generic_SUNLinearSolver = type { ptr, ptr, ptr }
%struct._SUNLinearSolverContent_SPTFQMR = type { i32, i32, i32, i32, double, i32, ptr, ptr, ptr, ptr, ptr, ptr, ptr, ptr, ptr, ptr, ptr, ptr, ptr, ptr, ptr, ptr, ptr }

; Function Attrs: nounwind uwtable
define i32 @SUNLinSolInitialize_SPTFQMR(ptr noundef %0) #0 {
  %2 = alloca ptr, align 8
  %3 = alloca ptr, align 8
  %4 = alloca ptr, align 8
  store ptr %0, ptr %2, align 8, !tbaa !12
  call void @llvm.lifetime.start.p0(i64 8, ptr %3) #6
  %5 = load ptr, ptr %2, align 8, !tbaa !12
  %6 = getelementptr inbounds nuw %struct._generic_SUNLinearSolver, ptr %5, i32 0, i32 2
  %7 = load ptr, ptr %6, align 8, !tbaa !63
  store ptr %7, ptr %3, align 8, !tbaa !10
  call void @llvm.lifetime.start.p0(i64 8, ptr %4) #6
  %8 = load ptr, ptr %2, align 8, !tbaa !12
  %9 = getelementptr inbounds nuw %struct._generic_SUNLinearSolver, ptr %8, i32 0, i32 0
  %10 = load ptr, ptr %9, align 8, !tbaa !35
  store ptr %10, ptr %4, align 8, !tbaa !33
  %11 = load ptr, ptr %4, align 8, !tbaa !33
  %12 = getelementptr inbounds nuw %struct._SUNLinearSolverContent_SPTFQMR, ptr %11, i32 0, i32 0
  %13 = load i32, ptr %12, align 8, !tbaa !40
  %14 = icmp sle i32 %13, 0
  br i1 %14, label %15, label %18

15:                                               ; preds = %1
  %16 = load ptr, ptr %4, align 8, !tbaa !33
  %17 = getelementptr inbounds nuw %struct._SUNLinearSolverContent_SPTFQMR, ptr %16, i32 0, i32 0
  store i32 5, ptr %17, align 8, !tbaa !40
  br label %18

18:                                               ; preds = %15, %1
  %19 = load ptr, ptr %4, align 8, !tbaa !33
  %20 = getelementptr inbounds nuw %struct._SUNLinearSolverContent_SPTFQMR, ptr %19, i32 0, i32 1
  %21 = load i32, ptr %20, align 4, !tbaa !41
  %22 = icmp ne i32 %21, 1
  br i1 %22, label %23, label %36

23:                                               ; preds = %18
  %24 = load ptr, ptr %4, align 8, !tbaa !33
  %25 = getelementptr inbounds nuw %struct._SUNLinearSolverContent_SPTFQMR, ptr %24, i32 0, i32 1
  %26 = load i32, ptr %25, align 4, !tbaa !41
  %27 = icmp ne i32 %26, 2
  br i1 %27, label %28, label %36

28:                                               ; preds = %23
  %29 = load ptr, ptr %4, align 8, !tbaa !33
  %30 = getelementptr inbounds nuw %struct._SUNLinearSolverContent_SPTFQMR, ptr %29, i32 0, i32 1
  %31 = load i32, ptr %30, align 4, !tbaa !41
  %32 = icmp ne i32 %31, 3
  br i1 %32, label %33, label %36

33:                                               ; preds = %28
  %34 = load ptr, ptr %4, align 8, !tbaa !33
  %35 = getelementptr inbounds nuw %struct._SUNLinearSolverContent_SPTFQMR, ptr %34, i32 0, i32 1
  store i32 0, ptr %35, align 4, !tbaa !41
  br label %36

36:                                               ; preds = %33, %28, %23, %18
  call void @llvm.lifetime.end.p0(i64 8, ptr %4) #6
  call void @llvm.lifetime.end.p0(i64 8, ptr %3) #6
  ret i32 0
}